; Function Attrs: nounwind uwtable
define void @Llb4_Nonlin4SweepExperiment(ptr noundef %0) local_unnamed_addr #2 {
  %2 = alloca ptr, align 8
  %3 = alloca ptr, align 8
  %4 = alloca ptr, align 8
  call void @llvm.lifetime.start.p0(i64 8, ptr nonnull %2) #13
  call void @llvm.lifetime.start.p0(i64 8, ptr nonnull %3) #13
  call void @llvm.lifetime.start.p0(i64 8, ptr nonnull %4) #13
  call void @Llb4_Nonlin4Sweep(ptr noundef %0, i32 noundef 100, i32 noundef 500, ptr noundef nonnull %2, ptr noundef nonnull %3, ptr noundef nonnull %4, i32 noundef 1)
  %5 = load ptr, ptr %2, align 8, !tbaa !76
  %6 = load ptr, ptr %4, align 8, !tbaa !74
  %7 = getelementptr i8, ptr %6, i64 4
  %.val8.i = load i32, ptr %7, align 4, !tbaa !29
  %8 = icmp sgt i32 %.val8.i, 0
  br i1 %8, label %.lr.ph.i, label %.critedge.i

.lr.ph.i:                                         ; preds = %1
  %9 = getelementptr i8, ptr %6, i64 8
  br label %10

10:                                               ; preds = %10, %.lr.ph.i
  %indvars.iv.i = phi i64 [ 0, %.lr.ph.i ], [ %indvars.iv.next.i, %10 ]
  %.val7.i = load ptr, ptr %9, align 8, !tbaa !36
  %11 = getelementptr inbounds nuw ptr, ptr %.val7.i, i64 %indvars.iv.i
  %12 = load ptr, ptr %11, align 8, !tbaa !37
  tail call void @Cudd_RecursiveDeref(ptr noundef %5, ptr noundef %12) #13
  %indvars.iv.next.i = add nuw nsw i64 %indvars.iv.i, 1
  %.val.i = load i32, ptr %7, align 4, !tbaa !29
  %13 = sext i32 %.val.i to i64
  %14 = icmp slt i64 %indvars.iv.next.i, %13
  br i1 %14, label %10, label %.critedge.i, !llvm.loop !71

.critedge.i:                                      ; preds = %10, %1
  %15 = getelementptr inbounds nuw i8, ptr %6, i64 8
  %16 = load ptr, ptr %15, align 8, !tbaa !36
  %.not.i.i = icmp eq ptr %16, null
  br i1 %.not.i.i, label %Llb_Nonlin4SweepDeref.exit, label %17

17:                                               ; preds = %.critedge.i
  tail call void @free(ptr noundef nonnull %16) #13
  br label %Llb_Nonlin4SweepDeref.exit

Llb_Nonlin4SweepDeref.exit:                       ; preds = %.critedge.i, %17
  tail call void @free(ptr noundef nonnull %6) #13
  %18 = getelementptr inbounds nuw i8, ptr %5, i64 736
  %19 = load ptr, ptr %18, align 8, !tbaa !73
  tail call void @Cudd_RecursiveDeref(ptr noundef %5, ptr noundef %19) #13
  tail call void @Extra_StopManager(ptr noundef %5) #13
  %20 = load ptr, ptr %3, align 8, !tbaa !78
  %21 = getelementptr inbounds nuw i8, ptr %20, i64 8
  %22 = load ptr, ptr %21, align 8, !tbaa !26
  %.not.i = icmp eq ptr %22, null
  br i1 %.not.i, label %Vec_IntFree.exit, label %23

23:                                               ; preds = %Llb_Nonlin4SweepDeref.exit
  tail call void @free(ptr noundef nonnull %22) #13
  br label %Vec_IntFree.exit

Vec_IntFree.exit:                                 ; preds = %Llb_Nonlin4SweepDeref.exit, %23
  tail call void @free(ptr noundef nonnull %20) #13
  call void @llvm.lifetime.end.p0(i64 8, ptr nonnull %4) #13
  call void @llvm.lifetime.end.p0(i64 8, ptr nonnull %3) #13
  call void @llvm.lifetime.end.p0(i64 8, ptr nonnull %2) #13
  ret void
}